(dp1
S'failed'
p2
(lp3
sS'source_names'
p4
(lp5
S'mixpanel'
p6
asS'ids'
p7
(dp8
I1
(S'/home/wes/.virtualenvs/pstat_dev/src/mixpanel/mixpanel/test/test_mixpanel.py'
S'mixpanel.test.test_mixpanel'
p9
S'TestInitFile.test_meta'
tp10
sI2
(S'/home/wes/.virtualenvs/pstat_dev/src/mixpanel/mixpanel/test/test_mixpanel.py'
g9
S'TestInitFile.test_version'
tp11
sI3
(S'/home/wes/.virtualenvs/pstat_dev/src/mixpanel/mixpanel/test/test_tasks.py'
S'mixpanel.test.test_tasks'
p12
S'EventTrackerTest.test_build_params'
tp13
sI4
(S'/home/wes/.virtualenvs/pstat_dev/src/mixpanel/mixpanel/test/test_tasks.py'
g12
S'EventTrackerTest.test_debug_logger'
tp14
sI5
(S'/home/wes/.virtualenvs/pstat_dev/src/mixpanel/mixpanel/test/test_tasks.py'
g12
S'EventTrackerTest.test_failed_request'
tp15
sI6
(S'/home/wes/.virtualenvs/pstat_dev/src/mixpanel/mixpanel/test/test_tasks.py'
g12
S'EventTrackerTest.test_handle_properties_empty'
tp16
sI7
(S'/home/wes/.virtualenvs/pstat_dev/src/mixpanel/mixpanel/test/test_tasks.py'
g12
S'EventTrackerTest.test_handle_properties_no_token'
tp17
sI8
(S'/home/wes/.virtualenvs/pstat_dev/src/mixpanel/mixpanel/test/test_tasks.py'
g12
S'EventTrackerTest.test_handle_properties_w_token'
tp18
sI9
(S'/home/wes/.virtualenvs/pstat_dev/src/mixpanel/mixpanel/test/test_tasks.py'
g12
S'EventTrackerTest.test_is_test'
tp19
sI10
(S'/home/wes/.virtualenvs/pstat_dev/src/mixpanel/mixpanel/test/test_tasks.py'
g12
S'EventTrackerTest.test_old_run'
tp20
sI11
(S'/home/wes/.virtualenvs/pstat_dev/src/mixpanel/mixpanel/test/test_tasks.py'
g12
S'EventTrackerTest.test_run'
tp21
sI12
(S'/home/wes/.virtualenvs/pstat_dev/src/mixpanel/mixpanel/test/test_tasks.py'
g12
S'FunnelEventTrackerTest.test_afp_properties'
tp22
sI13
(S'/home/wes/.virtualenvs/pstat_dev/src/mixpanel/mixpanel/test/test_tasks.py'
g12
S'FunnelEventTrackerTest.test_afp_validation'
tp23
sI14
(S'/home/wes/.virtualenvs/pstat_dev/src/mixpanel/mixpanel/test/test_tasks.py'
g12
S'FunnelEventTrackerTest.test_run'
tp24
ss.